target datalayout = "e-m:e-p270:32:32-p271:32:32-p272:64:64-i64:64-i128:128-f80:128-n8:16:32:64-S128"
target triple = "x86_64-pc-linux-gnu"

%class.QString = type { %struct.QArrayDataPointer }
%struct.QArrayDataPointer = type { ptr, ptr, i64 }
%class.ATapDataModel = type { %class.QAbstractListModel, i32, ptr, %class.QString, i8, i8, i8, i8, double, double, i32, %struct._conversation_hash_t }
%class.QAbstractListModel = type { %class.QAbstractItemModel }
%class.QAbstractItemModel = type { %class.QObject }
%class.QObject = type { ptr, %class.QScopedPointer }
%class.QScopedPointer = type { ptr }
%struct._conversation_hash_t = type { ptr, ptr, ptr, i32 }

; Function Attrs: mustprogress nounwind uwtable
define noundef ptr @_ZN13ATapDataModel4hashEv(ptr noundef nonnull align 8 dereferenceable(120) %0) #2 align 2 {
  %2 = alloca ptr, align 8
  store ptr %0, ptr %2, align 8
  %3 = load ptr, ptr %2, align 8
  %4 = getelementptr inbounds %class.ATapDataModel, ptr %3, i32 0, i32 11
  ret ptr %4
}

; Function Attrs: mustprogress uwtable
define void @_ZN13ATapDataModel10disableTapEv(ptr noundef nonnull align 8 dereferenceable(120) %0) #0 align 2 {
  %2 = alloca ptr, align 8
  store ptr %0, ptr %2, align 8
  %3 = load ptr, ptr %2, align 8
  %4 = getelementptr inbounds %class.ATapDataModel, ptr %3, i32 0, i32 7
  %5 = load i8, ptr %4, align 1
  %6 = trunc i8 %5 to i1
  br i1 %6, label %9, label %7

7:                                                ; preds = %1
  %8 = call noundef ptr @_ZN13ATapDataModel4hashEv(ptr noundef nonnull align 8 dereferenceable(120) %3)
  call void @remove_tap_listener(ptr noundef %8)
  br label %9

9:                                                ; preds = %7, %1
  %10 = getelementptr inbounds %class.ATapDataModel, ptr %3, i32 0, i32 7
  store i8 1, ptr %10, align 1
  call void @_ZN13ATapDataModel18tapListenerChangedEb(ptr noundef nonnull align 8 dereferenceable(120) %3, i1 noundef zeroext false)
  ret void
}