; Function Attrs: mustprogress uwtable
define void @_ZN13ATapDataModel10disableTapEv(ptr noundef nonnull align 8 dereferenceable(120) %0) local_unnamed_addr #0 align 2 {
  %2 = getelementptr inbounds i8, ptr %0, i64 59
  %3 = load i8, ptr %2, align 1
  %4 = and i8 %3, 1
  %.not = icmp eq i8 %4, 0
  br i1 %.not, label %5, label %7

5:                                                ; preds = %1
  %6 = getelementptr inbounds i8, ptr %0, i64 88
  tail call void @remove_tap_listener(ptr noundef nonnull %6)
  br label %7

7:                                                ; preds = %5, %1
  store i8 1, ptr %2, align 1
  tail call void @_ZN13ATapDataModel18tapListenerChangedEb(ptr noundef nonnull align 8 dereferenceable(120) %0, i1 noundef zeroext false)
  ret void
}